target datalayout = "e-m:e-p270:32:32-p271:32:32-p272:64:64-i64:64-i128:128-f80:128-n8:16:32:64-S128"
target triple = "x86_64-pc-linux-gnu"

%class.btAlignedObjectArray.2 = type <{ [4 x i8], i32, i32, [4 x i8], ptr, i8, [7 x i8] }>

; Function Attrs: inlinehint mustprogress nounwind uwtable
define linkonce_odr dso_local noundef nonnull align 4 dereferenceable(4) ptr @_ZNK20btAlignedObjectArrayIiEixEi(ptr noundef nonnull align 8 dereferenceable(25) %0, i32 noundef %1) #3 comdat align 2 {
  %3 = alloca ptr, align 8
  %4 = alloca i32, align 4
  store ptr %0, ptr %3, align 8, !tbaa !55
  store i32 %1, ptr %4, align 4, !tbaa !9
  %5 = load ptr, ptr %3, align 8
  %6 = getelementptr inbounds nuw %class.btAlignedObjectArray.2, ptr %5, i32 0, i32 4
  %7 = load ptr, ptr %6, align 8, !tbaa !58
  %8 = load i32, ptr %4, align 4, !tbaa !9
  %9 = sext i32 %8 to i64
  %10 = getelementptr inbounds i32, ptr %7, i64 %9
  ret ptr %10
}

; Function Attrs: inlinehint mustprogress nounwind uwtable
define linkonce_odr dso_local noundef i32 @_ZNK20btAlignedObjectArrayIiE4sizeEv(ptr noundef nonnull align 8 dereferenceable(25) %0) #3 comdat align 2 {
  %2 = alloca ptr, align 8
  store ptr %0, ptr %2, align 8, !tbaa !55
  %3 = load ptr, ptr %2, align 8
  %4 = getelementptr inbounds nuw %class.btAlignedObjectArray.2, ptr %3, i32 0, i32 1
  %5 = load i32, ptr %4, align 4, !tbaa !61
  ret i32 %5
}

; Function Attrs: mustprogress uwtable
define dso_local noundef zeroext i1 @_ZN16btLemkeAlgorithm10validBasisERK20btAlignedObjectArrayIiE(ptr noundef nonnull align 8 dereferenceable(140) %0, ptr noundef nonnull align 8 dereferenceable(25) %1) #2 align 2 {
  %3 = alloca ptr, align 8
  %4 = alloca ptr, align 8
  %5 = alloca i8, align 1
  %6 = alloca i32, align 4
  %7 = alloca i32, align 4
  store ptr %0, ptr %3, align 8, !tbaa !20
  store ptr %1, ptr %4, align 8, !tbaa !55
  call void @llvm.lifetime.start.p0(i64 1, ptr %5) #10
  store i8 1, ptr %5, align 1, !tbaa !12
  call void @llvm.lifetime.start.p0(i64 4, ptr %6) #10
  store i32 0, ptr %6, align 4, !tbaa !9
  br label %8

8:                                                ; preds = %25, %2
  %9 = load i32, ptr %6, align 4, !tbaa !9
  %10 = load ptr, ptr %4, align 8, !tbaa !55
  %11 = call noundef i32 @_ZNK20btAlignedObjectArrayIiE4sizeEv(ptr noundef nonnull align 8 dereferenceable(25) %10)
  %12 = icmp slt i32 %9, %11
  br i1 %12, label %14, label %13

13:                                               ; preds = %8
  store i32 2, ptr %7, align 4
  br label %28

14:                                               ; preds = %8
  %15 = load ptr, ptr %4, align 8, !tbaa !55
  %16 = load i32, ptr %6, align 4, !tbaa !9
  %17 = call noundef nonnull align 4 dereferenceable(4) ptr @_ZNK20btAlignedObjectArrayIiEixEi(ptr noundef nonnull align 8 dereferenceable(25) %15, i32 noundef %16)
  %18 = load i32, ptr %17, align 4, !tbaa !9
  %19 = load ptr, ptr %4, align 8, !tbaa !55
  %20 = call noundef i32 @_ZNK20btAlignedObjectArrayIiE4sizeEv(ptr noundef nonnull align 8 dereferenceable(25) %19)
  %21 = mul nsw i32 %20, 2
  %22 = icmp sge i32 %18, %21
  br i1 %22, label %23, label %24

23:                                               ; preds = %14
  store i8 0, ptr %5, align 1, !tbaa !12
  store i32 2, ptr %7, align 4
  br label %28

24:                                               ; preds = %14
  br label %25

25:                                               ; preds = %24
  %26 = load i32, ptr %6, align 4, !tbaa !9
  %27 = add nsw i32 %26, 1
  store i32 %27, ptr %6, align 4, !tbaa !9
  br label %8, !llvm.loop !72

28:                                               ; preds = %23, %13
  call void @llvm.lifetime.end.p0(i64 4, ptr %6) #10
  br label %29

29:                                               ; preds = %28
  %30 = load i8, ptr %5, align 1, !tbaa !12, !range !14, !noundef !15
  %31 = trunc i8 %30 to i1
  store i32 1, ptr %7, align 4
  call void @llvm.lifetime.end.p0(i64 1, ptr %5) #10
  ret i1 %31
}