; Function Attrs: mustprogress nofree norecurse nosync nounwind willreturn memory(read, inaccessiblemem: none) uwtable
define dso_local noundef zeroext i1 @_ZN16btLemkeAlgorithm10validBasisERK20btAlignedObjectArrayIiE(ptr noundef nonnull readnone align 8 captures(none) dereferenceable(140) %0, ptr noundef nonnull readonly align 8 captures(none) dereferenceable(25) %1) local_unnamed_addr #5 align 2 {
  %3 = getelementptr inbounds nuw i8, ptr %1, i64 4
  %4 = load i32, ptr %3, align 4, !tbaa !50
  %5 = icmp slt i32 %4, 1
  br i1 %5, label %._crit_edge, label %.lr.ph

.lr.ph:                                           ; preds = %2
  %6 = getelementptr inbounds nuw i8, ptr %1, i64 16
  %7 = load ptr, ptr %6, align 8, !tbaa !49
  %8 = shl nuw nsw i32 %4, 1
  %wide.trip.count = zext nneg i32 %4 to i64
  br label %9

9:                                                ; preds = %9, %.lr.ph
  %indvars.iv = phi i64 [ 0, %.lr.ph ], [ %indvars.iv.next, %9 ]
  %10 = getelementptr inbounds nuw i32, ptr %7, i64 %indvars.iv
  %11 = load i32, ptr %10, align 4, !tbaa !10
  %.not = icmp slt i32 %11, %8
  %indvars.iv.next = add nuw nsw i64 %indvars.iv, 1
  %exitcond.not = icmp ne i64 %indvars.iv.next, %wide.trip.count
  %or.cond.not = select i1 %.not, i1 %exitcond.not, i1 false
  br i1 %or.cond.not, label %9, label %._crit_edge, !llvm.loop !61

._crit_edge:                                      ; preds = %9, %2
  %.lcssa = phi i1 [ true, %2 ], [ %.not, %9 ]
  ret i1 %.lcssa
}